; Function Attrs: mustprogress nounwind willreturn uwtable
define range(i32 -2147483648, 101) i32 @Dam_ManDivSlack(ptr noundef readonly captures(none) %0, i32 noundef %1, i32 noundef %2, i32 noundef %3) local_unnamed_addr #6 {
  %5 = load ptr, ptr %0, align 8, !tbaa !81
  %6 = ashr i32 %1, 1
  %7 = zext i32 %6 to i64
  %8 = getelementptr i8, ptr %5, i64 160
  %.val14 = load ptr, ptr %8, align 8, !tbaa !38
  %9 = add nsw i32 %6, 1
  %10 = getelementptr inbounds nuw i8, ptr %.val14, i64 4
  %11 = load i32, ptr %10, align 4, !tbaa !3
  %.not.i.not.i.i.i = icmp sgt i32 %11, %6
  br i1 %.not.i.not.i.i.i, label %Gia_ObjLevel.exit, label %12

12:                                               ; preds = %4
  %13 = load i32, ptr %.val14, align 8, !tbaa !14
  %14 = shl nsw i32 %13, 1
  %.not.i.i.i = icmp sgt i32 %14, %6
  %.not.i.i.not.i.i.i = icmp sgt i32 %13, %6
  br i1 %.not.i.i.i, label %27, label %15

15:                                               ; preds = %12
  br i1 %.not.i.i.not.i.i.i, label %Vec_IntGrow.exit.i.i.i.i, label %16

16:                                               ; preds = %15
  %17 = getelementptr inbounds nuw i8, ptr %.val14, i64 8
  %18 = load ptr, ptr %17, align 8, !tbaa !10
  %.not9.i.i.i.i.i = icmp eq ptr %18, null
  %19 = sext i32 %9 to i64
  %20 = shl nsw i64 %19, 2
  br i1 %.not9.i.i.i.i.i, label %23, label %21

21:                                               ; preds = %16
  %22 = tail call ptr @realloc(ptr noundef nonnull %18, i64 noundef %20) #25
  br label %25

23:                                               ; preds = %16
  %24 = tail call noalias ptr @malloc(i64 noundef %20) #26
  br label %25

25:                                               ; preds = %23, %21
  %26 = phi ptr [ %22, %21 ], [ %24, %23 ]
  store ptr %26, ptr %17, align 8, !tbaa !10
  br label %Vec_IntGrow.exit.sink.split.i.i.i.i

27:                                               ; preds = %12
  br i1 %.not.i.i.not.i.i.i, label %Vec_IntGrow.exit.i.i.i.i, label %28

28:                                               ; preds = %27
  %29 = getelementptr inbounds nuw i8, ptr %.val14, i64 8
  %30 = load ptr, ptr %29, align 8, !tbaa !10
  %.not9.i21.i.i.i.i = icmp eq ptr %30, null
  %31 = sext i32 %14 to i64
  %32 = shl nsw i64 %31, 2
  br i1 %.not9.i21.i.i.i.i, label %35, label %33

33:                                               ; preds = %28
  %34 = tail call ptr @realloc(ptr noundef nonnull %30, i64 noundef %32) #25
  br label %37

35:                                               ; preds = %28
  %36 = tail call noalias ptr @malloc(i64 noundef %32) #26
  br label %37

37:                                               ; preds = %35, %33
  %38 = phi ptr [ %34, %33 ], [ %36, %35 ]
  store ptr %38, ptr %29, align 8, !tbaa !10
  br label %Vec_IntGrow.exit.sink.split.i.i.i.i

Vec_IntGrow.exit.sink.split.i.i.i.i:              ; preds = %37, %25
  %.sink.i.i.i.i = phi i32 [ %14, %37 ], [ %9, %25 ]
  store i32 %.sink.i.i.i.i, ptr %.val14, align 8, !tbaa !14
  %.pre.i.i.i = load i32, ptr %10, align 4, !tbaa !3
  br label %Vec_IntGrow.exit.i.i.i.i

Vec_IntGrow.exit.i.i.i.i:                         ; preds = %Vec_IntGrow.exit.sink.split.i.i.i.i, %27, %15
  %39 = phi i32 [ %.pre.i.i.i, %Vec_IntGrow.exit.sink.split.i.i.i.i ], [ %11, %27 ], [ %11, %15 ]
  %.not3.i.i.i = icmp sgt i32 %39, %6
  br i1 %.not3.i.i.i, label %._crit_edge.i.i.i.i, label %.lr.ph.i.i.i.i

.lr.ph.i.i.i.i:                                   ; preds = %Vec_IntGrow.exit.i.i.i.i
  %40 = getelementptr inbounds nuw i8, ptr %.val14, i64 8
  %41 = load ptr, ptr %40, align 8, !tbaa !10
  %42 = sext i32 %39 to i64
  %wide.trip.count.i.i.i.i = sext i32 %9 to i64
  %43 = shl nsw i64 %42, 2
  %scevgep.i.i.i = getelementptr i8, ptr %41, i64 %43
  %44 = sub nsw i64 %wide.trip.count.i.i.i.i, %42
  %45 = shl nsw i64 %44, 2
  tail call void @llvm.memset.p0.i64(ptr align 4 %scevgep.i.i.i, i8 0, i64 %45, i1 false), !tbaa !11
  br label %._crit_edge.i.i.i.i

._crit_edge.i.i.i.i:                              ; preds = %.lr.ph.i.i.i.i, %Vec_IntGrow.exit.i.i.i.i
  store i32 %9, ptr %10, align 4, !tbaa !3
  %.pre = load ptr, ptr %0, align 8, !tbaa !81
  %.phi.trans.insert = getelementptr i8, ptr %.pre, i64 160
  %.val16.pre = load ptr, ptr %.phi.trans.insert, align 8, !tbaa !38
  %.phi.trans.insert35 = getelementptr inbounds nuw i8, ptr %.val16.pre, i64 4
  %.pre36 = load i32, ptr %.phi.trans.insert35, align 4, !tbaa !3
  br label %Gia_ObjLevel.exit

Gia_ObjLevel.exit:                                ; preds = %4, %._crit_edge.i.i.i.i
  %46 = phi i32 [ %11, %4 ], [ %.pre36, %._crit_edge.i.i.i.i ]
  %.val16 = phi ptr [ %.val14, %4 ], [ %.val16.pre, %._crit_edge.i.i.i.i ]
  %47 = getelementptr i8, ptr %.val14, i64 8
  %.val.i.i.i = load ptr, ptr %47, align 8, !tbaa !10
  %sext.i = shl nuw i64 %7, 32
  %48 = ashr exact i64 %sext.i, 30
  %49 = getelementptr inbounds i8, ptr %.val.i.i.i, i64 %48
  %50 = load i32, ptr %49, align 4, !tbaa !11
  %51 = ashr i32 %2, 1
  %52 = add nsw i32 %51, 1
  %53 = getelementptr inbounds nuw i8, ptr %.val16, i64 4
  %.not.i.not.i.i.i17 = icmp sgt i32 %46, %51
  br i1 %.not.i.not.i.i.i17, label %Gia_ObjLevel.exit33, label %54

54:                                               ; preds = %Gia_ObjLevel.exit
  %55 = load i32, ptr %.val16, align 8, !tbaa !14
  %56 = shl nsw i32 %55, 1
  %.not.i.i.i18 = icmp sgt i32 %56, %51
  %.not.i.i.not.i.i.i19 = icmp sgt i32 %55, %51
  br i1 %.not.i.i.i18, label %69, label %57

57:                                               ; preds = %54
  br i1 %.not.i.i.not.i.i.i19, label %Vec_IntGrow.exit.i.i.i.i24, label %58

58:                                               ; preds = %57
  %59 = getelementptr inbounds nuw i8, ptr %.val16, i64 8
  %60 = load ptr, ptr %59, align 8, !tbaa !10
  %.not9.i.i.i.i.i20 = icmp eq ptr %60, null
  %61 = sext i32 %52 to i64
  %62 = shl nsw i64 %61, 2
  br i1 %.not9.i.i.i.i.i20, label %65, label %63

63:                                               ; preds = %58
  %64 = tail call ptr @realloc(ptr noundef nonnull %60, i64 noundef %62) #25
  br label %67

65:                                               ; preds = %58
  %66 = tail call noalias ptr @malloc(i64 noundef %62) #26
  br label %67

67:                                               ; preds = %65, %63
  %68 = phi ptr [ %64, %63 ], [ %66, %65 ]
  store ptr %68, ptr %59, align 8, !tbaa !10
  br label %Vec_IntGrow.exit.sink.split.i.i.i.i21

69:                                               ; preds = %54
  br i1 %.not.i.i.not.i.i.i19, label %Vec_IntGrow.exit.i.i.i.i24, label %70

70:                                               ; preds = %69
  %71 = getelementptr inbounds nuw i8, ptr %.val16, i64 8
  %72 = load ptr, ptr %71, align 8, !tbaa !10
  %.not9.i21.i.i.i.i32 = icmp eq ptr %72, null
  %73 = sext i32 %56 to i64
  %74 = shl nsw i64 %73, 2
  br i1 %.not9.i21.i.i.i.i32, label %77, label %75

75:                                               ; preds = %70
  %76 = tail call ptr @realloc(ptr noundef nonnull %72, i64 noundef %74) #25
  br label %79

77:                                               ; preds = %70
  %78 = tail call noalias ptr @malloc(i64 noundef %74) #26
  br label %79

79:                                               ; preds = %77, %75
  %80 = phi ptr [ %76, %75 ], [ %78, %77 ]
  store ptr %80, ptr %71, align 8, !tbaa !10
  br label %Vec_IntGrow.exit.sink.split.i.i.i.i21

Vec_IntGrow.exit.sink.split.i.i.i.i21:            ; preds = %79, %67
  %.sink.i.i.i.i22 = phi i32 [ %56, %79 ], [ %52, %67 ]
  store i32 %.sink.i.i.i.i22, ptr %.val16, align 8, !tbaa !14
  %.pre.i.i.i23 = load i32, ptr %53, align 4, !tbaa !3
  br label %Vec_IntGrow.exit.i.i.i.i24

Vec_IntGrow.exit.i.i.i.i24:                       ; preds = %Vec_IntGrow.exit.sink.split.i.i.i.i21, %69, %57
  %81 = phi i32 [ %.pre.i.i.i23, %Vec_IntGrow.exit.sink.split.i.i.i.i21 ], [ %46, %69 ], [ %46, %57 ]
  %.not3.i.i.i25 = icmp sgt i32 %81, %51
  br i1 %.not3.i.i.i25, label %._crit_edge.i.i.i.i29, label %.lr.ph.i.i.i.i26

.lr.ph.i.i.i.i26:                                 ; preds = %Vec_IntGrow.exit.i.i.i.i24
  %82 = getelementptr inbounds nuw i8, ptr %.val16, i64 8
  %83 = load ptr, ptr %82, align 8, !tbaa !10
  %84 = sext i32 %81 to i64
  %wide.trip.count.i.i.i.i27 = sext i32 %52 to i64
  %85 = shl nsw i64 %84, 2
  %scevgep.i.i.i28 = getelementptr i8, ptr %83, i64 %85
  %86 = sub nsw i64 %wide.trip.count.i.i.i.i27, %84
  %87 = shl nsw i64 %86, 2
  tail call void @llvm.memset.p0.i64(ptr align 4 %scevgep.i.i.i28, i8 0, i64 %87, i1 false), !tbaa !11
  br label %._crit_edge.i.i.i.i29

._crit_edge.i.i.i.i29:                            ; preds = %.lr.ph.i.i.i.i26, %Vec_IntGrow.exit.i.i.i.i24
  store i32 %52, ptr %53, align 4, !tbaa !3
  br label %Gia_ObjLevel.exit33

Gia_ObjLevel.exit33:                              ; preds = %Gia_ObjLevel.exit, %._crit_edge.i.i.i.i29
  %88 = zext i32 %51 to i64
  %89 = getelementptr i8, ptr %.val16, i64 8
  %.val.i.i.i30 = load ptr, ptr %89, align 8, !tbaa !10
  %sext.i31 = shl nuw i64 %88, 32
  %90 = ashr exact i64 %sext.i31, 30
  %91 = getelementptr inbounds i8, ptr %.val.i.i.i30, i64 %90
  %92 = load i32, ptr %91, align 4, !tbaa !11
  %93 = getelementptr inbounds nuw i8, ptr %0, i64 96
  %94 = load i32, ptr %93, align 8, !tbaa !99
  %95 = tail call noundef i32 @llvm.smax.i32(i32 %50, i32 %92)
  %96 = add i32 %95, %3
  %97 = xor i32 %96, -1
  %98 = icmp sgt i32 %1, %2
  %.neg = sext i1 %98 to i32
  %99 = add i32 %94, %.neg
  %100 = add i32 %99, %97
  %101 = tail call range(i32 -2147483648, 536870913) i32 @llvm.smin.i32(i32 %100, i32 100)
  ret i32 %101
}